target datalayout = "e-m:e-p270:32:32-p271:32:32-p272:64:64-i64:64-i128:128-f80:128-n8:16:32:64-S128"
target triple = "x86_64-pc-linux-gnu"

@exit_code = dso_local global i32 0, align 4
@quiet_flag = dso_local global i32 0, align 4
@stderr = external global ptr, align 8
@.str.60 = private unnamed_addr constant [34 x i8] c"too few arguments for keyword:%s\0A\00", align 1
@.str.162 = private unnamed_addr constant [6 x i8] c"node=\00", align 1
@.str.163 = private unnamed_addr constant [7 x i8] c"nodes=\00", align 1
@.str.164 = private unnamed_addr constant [48 x i8] c"Failed to set DebugFlags on one or more nodes.\0A\00", align 1
@.str.165 = private unnamed_addr constant [24 x i8] c"invalid debug flag: %s\0A\00", align 1
@.str.166 = private unnamed_addr constant [60 x i8] c"Usage: setdebugflags {+|-}NAME [{+|-}NAME] [nodes=<NODES>]\0A\00", align 1
@.str.167 = private unnamed_addr constant [28 x i8] c"slurm_set_debug_flags error\00", align 1

; Function Attrs: nounwind uwtable
define internal void @_setdebugflags(i32 noundef %0, ptr noundef %1) #0 {
  %3 = alloca i32, align 4
  %4 = alloca ptr, align 8
  %5 = alloca ptr, align 8
  %6 = alloca i32, align 4
  %7 = alloca i32, align 4
  %8 = alloca i64, align 8
  %9 = alloca i64, align 8
  %10 = alloca i64, align 8
  %11 = alloca i32, align 4
  %12 = alloca ptr, align 8
  store i32 %0, ptr %3, align 4
  store ptr %1, ptr %4, align 8
  call void @llvm.lifetime.start.p0(i64 8, ptr %5) #12
  %13 = load ptr, ptr %4, align 8
  %14 = getelementptr inbounds ptr, ptr %13, i64 0
  %15 = load ptr, ptr %14, align 8
  store ptr %15, ptr %5, align 8
  call void @llvm.lifetime.start.p0(i64 4, ptr %6) #12
  call void @llvm.lifetime.start.p0(i64 4, ptr %7) #12
  store i32 0, ptr %7, align 4
  call void @llvm.lifetime.start.p0(i64 8, ptr %8) #12
  store i64 0, ptr %8, align 8
  call void @llvm.lifetime.start.p0(i64 8, ptr %9) #12
  store i64 0, ptr %9, align 8
  call void @llvm.lifetime.start.p0(i64 8, ptr %10) #12
  %16 = load i32, ptr %3, align 4
  %17 = icmp slt i32 %16, 2
  br i1 %17, label %18, label %26

18:                                               ; preds = %2
  store i32 1, ptr @exit_code, align 4
  %19 = load i32, ptr @quiet_flag, align 4
  %20 = icmp ne i32 %19, 1
  br i1 %20, label %21, label %25

21:                                               ; preds = %18
  %22 = load ptr, ptr @stderr, align 8
  %23 = load ptr, ptr %5, align 8
  %24 = call i32 (ptr, ptr, ...) @fprintf(ptr noundef %22, ptr noundef @.str.60, ptr noundef %23) #12
  br label %25

25:                                               ; preds = %21, %18
  store i32 1, ptr %11, align 4
  br label %160

26:                                               ; preds = %2
  store i32 1, ptr %6, align 4
  br label %27

27:                                               ; preds = %77, %26
  %28 = load i32, ptr %6, align 4
  %29 = load i32, ptr %3, align 4
  %30 = icmp slt i32 %28, %29
  br i1 %30, label %31, label %80

31:                                               ; preds = %27
  %32 = load ptr, ptr %4, align 8
  %33 = load i32, ptr %6, align 4
  %34 = sext i32 %33 to i64
  %35 = getelementptr inbounds ptr, ptr %32, i64 %34
  %36 = load ptr, ptr %35, align 8
  %37 = getelementptr inbounds i8, ptr %36, i64 0
  %38 = load i8, ptr %37, align 1
  %39 = sext i8 %38 to i32
  %40 = icmp eq i32 %39, 43
  br i1 %40, label %41, label %42

41:                                               ; preds = %31
  store i32 1, ptr %7, align 4
  br label %55

42:                                               ; preds = %31
  %43 = load ptr, ptr %4, align 8
  %44 = load i32, ptr %6, align 4
  %45 = sext i32 %44 to i64
  %46 = getelementptr inbounds ptr, ptr %43, i64 %45
  %47 = load ptr, ptr %46, align 8
  %48 = getelementptr inbounds i8, ptr %47, i64 0
  %49 = load i8, ptr %48, align 1
  %50 = sext i8 %49 to i32
  %51 = icmp eq i32 %50, 45
  br i1 %51, label %52, label %53

52:                                               ; preds = %42
  store i32 -1, ptr %7, align 4
  br label %54

53:                                               ; preds = %42
  store i32 0, ptr %7, align 4
  br label %80

54:                                               ; preds = %52
  br label %55

55:                                               ; preds = %54, %41
  %56 = load ptr, ptr %4, align 8
  %57 = load i32, ptr %6, align 4
  %58 = sext i32 %57 to i64
  %59 = getelementptr inbounds ptr, ptr %56, i64 %58
  %60 = load ptr, ptr %59, align 8
  %61 = getelementptr inbounds i8, ptr %60, i64 1
  %62 = call i32 @debug_str2flags(ptr noundef %61, ptr noundef %10)
  %63 = icmp ne i32 %62, 0
  br i1 %63, label %64, label %65

64:                                               ; preds = %55
  br label %80

65:                                               ; preds = %55
  %66 = load i32, ptr %7, align 4
  %67 = icmp eq i32 %66, 1
  br i1 %67, label %68, label %72

68:                                               ; preds = %65
  %69 = load i64, ptr %10, align 8
  %70 = load i64, ptr %8, align 8
  %71 = or i64 %70, %69
  store i64 %71, ptr %8, align 8
  br label %76

72:                                               ; preds = %65
  %73 = load i64, ptr %10, align 8
  %74 = load i64, ptr %9, align 8
  %75 = or i64 %74, %73
  store i64 %75, ptr %9, align 8
  br label %76

76:                                               ; preds = %72, %68
  br label %77

77:                                               ; preds = %76
  %78 = load i32, ptr %6, align 4
  %79 = add nsw i32 %78, 1
  store i32 %79, ptr %6, align 4
  br label %27, !llvm.loop !29

80:                                               ; preds = %64, %53, %27
  %81 = load i32, ptr %6, align 4
  %82 = load i32, ptr %3, align 4
  %83 = sub nsw i32 %82, 1
  %84 = icmp eq i32 %81, %83
  br i1 %84, label %85, label %122

85:                                               ; preds = %80
  %86 = load ptr, ptr %4, align 8
  %87 = load i32, ptr %6, align 4
  %88 = sext i32 %87 to i64
  %89 = getelementptr inbounds ptr, ptr %86, i64 %88
  %90 = load ptr, ptr %89, align 8
  %91 = call i32 @xstrncasecmp(ptr noundef %90, ptr noundef @.str.162, i64 noundef 5)
  %92 = icmp ne i32 %91, 0
  br i1 %92, label %93, label %101

93:                                               ; preds = %85
  %94 = load ptr, ptr %4, align 8
  %95 = load i32, ptr %6, align 4
  %96 = sext i32 %95 to i64
  %97 = getelementptr inbounds ptr, ptr %94, i64 %96
  %98 = load ptr, ptr %97, align 8
  %99 = call i32 @xstrncasecmp(ptr noundef %98, ptr noundef @.str.163, i64 noundef 6)
  %100 = icmp ne i32 %99, 0
  br i1 %100, label %122, label %101

101:                                              ; preds = %93, %85
  call void @llvm.lifetime.start.p0(i64 8, ptr %12) #12
  %102 = load ptr, ptr %4, align 8
  %103 = load i32, ptr %6, align 4
  %104 = sext i32 %103 to i64
  %105 = getelementptr inbounds ptr, ptr %102, i64 %104
  %106 = load ptr, ptr %105, align 8
  %107 = call ptr @strchr(ptr noundef %106, i32 noundef 61) #15
  %108 = getelementptr inbounds i8, ptr %107, i64 1
  store ptr %108, ptr %12, align 8
  %109 = load ptr, ptr %12, align 8
  %110 = load i64, ptr %8, align 8
  %111 = load i64, ptr %9, align 8
  %112 = call i32 @slurm_set_slurmd_debug_flags(ptr noundef %109, i64 noundef %110, i64 noundef %111)
  %113 = icmp ne i32 %112, 0
  br i1 %113, label %114, label %121

114:                                              ; preds = %101
  store i32 1, ptr @exit_code, align 4
  %115 = load i32, ptr @quiet_flag, align 4
  %116 = icmp ne i32 %115, 1
  br i1 %116, label %117, label %120

117:                                              ; preds = %114
  %118 = load ptr, ptr @stderr, align 8
  %119 = call i32 (ptr, ptr, ...) @fprintf(ptr noundef %118, ptr noundef @.str.164) #12
  br label %120

120:                                              ; preds = %117, %114
  br label %121

121:                                              ; preds = %120, %101
  call void @llvm.lifetime.end.p0(i64 8, ptr %12) #12
  br label %159

122:                                              ; preds = %93, %80
  %123 = load i32, ptr %6, align 4
  %124 = load i32, ptr %3, align 4
  %125 = icmp slt i32 %123, %124
  br i1 %125, label %126, label %147

126:                                              ; preds = %122
  store i32 1, ptr @exit_code, align 4
  %127 = load i32, ptr @quiet_flag, align 4
  %128 = icmp ne i32 %127, 1
  br i1 %128, label %129, label %137

129:                                              ; preds = %126
  %130 = load ptr, ptr @stderr, align 8
  %131 = load ptr, ptr %4, align 8
  %132 = load i32, ptr %6, align 4
  %133 = sext i32 %132 to i64
  %134 = getelementptr inbounds ptr, ptr %131, i64 %133
  %135 = load ptr, ptr %134, align 8
  %136 = call i32 (ptr, ptr, ...) @fprintf(ptr noundef %130, ptr noundef @.str.165, ptr noundef %135) #12
  br label %137

137:                                              ; preds = %129, %126
  %138 = load i32, ptr @quiet_flag, align 4
  %139 = icmp ne i32 %138, 1
  br i1 %139, label %140, label %146

140:                                              ; preds = %137
  %141 = load i32, ptr %7, align 4
  %142 = icmp eq i32 %141, 0
  br i1 %142, label %143, label %146

143:                                              ; preds = %140
  %144 = load ptr, ptr @stderr, align 8
  %145 = call i32 (ptr, ptr, ...) @fprintf(ptr noundef %144, ptr noundef @.str.166) #12
  br label %146

146:                                              ; preds = %143, %140, %137
  br label %158

147:                                              ; preds = %122
  %148 = load i64, ptr %8, align 8
  %149 = load i64, ptr %9, align 8
  %150 = call i32 @slurm_set_debugflags(i64 noundef %148, i64 noundef %149)
  %151 = icmp ne i32 %150, 0
  br i1 %151, label %152, label %157

152:                                              ; preds = %147
  store i32 1, ptr @exit_code, align 4
  %153 = load i32, ptr @quiet_flag, align 4
  %154 = icmp ne i32 %153, 1
  br i1 %154, label %155, label %156

155:                                              ; preds = %152
  call void @slurm_perror(ptr noundef @.str.167)
  br label %156

156:                                              ; preds = %155, %152
  br label %157

157:                                              ; preds = %156, %147
  br label %158

158:                                              ; preds = %157, %146
  br label %159

159:                                              ; preds = %158, %121
  store i32 0, ptr %11, align 4
  br label %160

160:                                              ; preds = %159, %25
  call void @llvm.lifetime.end.p0(i64 8, ptr %10) #12
  call void @llvm.lifetime.end.p0(i64 8, ptr %9) #12
  call void @llvm.lifetime.end.p0(i64 8, ptr %8) #12
  call void @llvm.lifetime.end.p0(i64 4, ptr %7) #12
  call void @llvm.lifetime.end.p0(i64 4, ptr %6) #12
  call void @llvm.lifetime.end.p0(i64 8, ptr %5) #12
  %161 = load i32, ptr %11, align 4
  switch i32 %161, label %163 [
    i32 0, label %162
    i32 1, label %162
  ]

162:                                              ; preds = %160, %160
  ret void

163:                                              ; preds = %160
  unreachable
}