; Function Attrs: nounwind uwtable
define internal fastcc void @_setdebugflags(i32 noundef range(i32 1, -2147483648) %0, ptr noundef readonly captures(none) %1) unnamed_addr #8 {
  %3 = alloca i64, align 8
  %4 = load ptr, ptr %1, align 8
  call void @llvm.lifetime.start.p0(i64 8, ptr nonnull %3) #18
  %5 = icmp samesign ult i32 %0, 2
  br i1 %5, label %6, label %.preheader.preheader

.preheader.preheader:                             ; preds = %2
  %wide.trip.count = zext nneg i32 %0 to i64
  br label %.preheader

6:                                                ; preds = %2
  store i32 1, ptr @exit_code, align 4
  %7 = load i32, ptr @quiet_flag, align 4
  %.not47 = icmp eq i32 %7, 1
  br i1 %.not47, label %.thread69, label %8

8:                                                ; preds = %6
  %9 = load ptr, ptr @stderr, align 8
  %10 = tail call i32 (ptr, ptr, ...) @fprintf(ptr noundef %9, ptr noundef nonnull @.str.60, ptr noundef %4) #22
  br label %.thread69

.preheader:                                       ; preds = %.preheader.preheader, %17
  %indvars.iv = phi i64 [ 1, %.preheader.preheader ], [ %indvars.iv.next, %17 ]
  %.03349 = phi i64 [ 0, %.preheader.preheader ], [ %.1, %17 ]
  %.03448 = phi i64 [ 0, %.preheader.preheader ], [ %.135, %17 ]
  %11 = getelementptr inbounds nuw ptr, ptr %1, i64 %indvars.iv
  %12 = load ptr, ptr %11, align 8
  %13 = load i8, ptr %12, align 1
  %.not81 = icmp eq i8 %13, 43
  switch i8 %13, label %21 [
    i8 45, label %14
    i8 43, label %14
  ]

14:                                               ; preds = %.preheader, %.preheader
  %15 = getelementptr inbounds nuw i8, ptr %12, i64 1
  %16 = call i32 @debug_str2flags(ptr noundef nonnull %15, ptr noundef nonnull %3) #18
  %.not = icmp eq i32 %16, 0
  br i1 %.not, label %17, label %21

17:                                               ; preds = %14
  %18 = load i64, ptr %3, align 8
  %19 = select i1 %.not81, i64 %18, i64 0
  %.135 = or i64 %19, %.03448
  %20 = select i1 %.not81, i64 0, i64 %18
  %.1 = or i64 %20, %.03349
  %indvars.iv.next = add nuw nsw i64 %indvars.iv, 1
  %exitcond.not = icmp eq i64 %indvars.iv.next, %wide.trip.count
  br i1 %exitcond.not, label %54, label %.preheader, !llvm.loop !28

21:                                               ; preds = %.preheader, %14
  %22 = trunc nuw nsw i64 %indvars.iv to i32
  %23 = add nsw i32 %0, -1
  %24 = icmp eq i32 %23, %22
  br i1 %24, label %25, label %43

25:                                               ; preds = %21
  %26 = and i64 %indvars.iv, 4294967295
  %27 = getelementptr inbounds nuw ptr, ptr %1, i64 %26
  %28 = load ptr, ptr %27, align 8
  %29 = call i32 @xstrncasecmp(ptr noundef %28, ptr noundef nonnull @.str.162, i64 noundef 5) #18
  %.not40 = icmp eq i32 %29, 0
  br i1 %.not40, label %33, label %30

30:                                               ; preds = %25
  %31 = load ptr, ptr %27, align 8
  %32 = call i32 @xstrncasecmp(ptr noundef %31, ptr noundef nonnull @.str.163, i64 noundef 6) #18
  %.not41 = icmp eq i32 %32, 0
  br i1 %.not41, label %33, label %43

33:                                               ; preds = %30, %25
  %34 = load ptr, ptr %27, align 8
  %35 = call ptr @strchr(ptr noundef nonnull dereferenceable(1) %34, i32 noundef 61) #23
  %36 = getelementptr inbounds nuw i8, ptr %35, i64 1
  %37 = call i32 @slurm_set_slurmd_debug_flags(ptr noundef nonnull %36, i64 noundef %.03448, i64 noundef %.03349) #18
  %.not42 = icmp eq i32 %37, 0
  br i1 %.not42, label %.thread69, label %38

38:                                               ; preds = %33
  store i32 1, ptr @exit_code, align 4
  %39 = load i32, ptr @quiet_flag, align 4
  %.not43 = icmp eq i32 %39, 1
  br i1 %.not43, label %.thread69, label %40

40:                                               ; preds = %38
  %41 = load ptr, ptr @stderr, align 8
  %42 = call i64 @fwrite(ptr nonnull @.str.164, i64 47, i64 1, ptr %41) #19
  br label %.thread69

43:                                               ; preds = %30, %21
  store i32 1, ptr @exit_code, align 4
  %44 = load i32, ptr @quiet_flag, align 4
  %.not46 = icmp eq i32 %44, 1
  br i1 %.not46, label %.thread69, label %45

45:                                               ; preds = %43
  %46 = load ptr, ptr @stderr, align 8
  %47 = and i64 %indvars.iv, 4294967295
  %48 = getelementptr inbounds nuw ptr, ptr %1, i64 %47
  %49 = load ptr, ptr %48, align 8
  %50 = call i32 (ptr, ptr, ...) @fprintf(ptr noundef %46, ptr noundef nonnull @.str.165, ptr noundef %49) #22
  %.pre = load i32, ptr @quiet_flag, align 4
  %.pre.fr = freeze i32 %.pre
  %.not82 = icmp eq i32 %.pre.fr, 1
  br i1 %.not82, label %.thread69, label %switch.early.test

switch.early.test:                                ; preds = %45
  switch i8 %13, label %51 [
    i8 45, label %.thread69
    i8 43, label %.thread69
  ]

51:                                               ; preds = %switch.early.test
  %52 = load ptr, ptr @stderr, align 8
  %53 = call i64 @fwrite(ptr nonnull @.str.166, i64 59, i64 1, ptr %52) #19
  br label %.thread69

54:                                               ; preds = %17
  %55 = call i32 @slurm_set_debugflags(i64 noundef %.135, i64 noundef %.1) #18
  %.not44 = icmp eq i32 %55, 0
  br i1 %.not44, label %.thread69, label %56

56:                                               ; preds = %54
  store i32 1, ptr @exit_code, align 4
  %57 = load i32, ptr @quiet_flag, align 4
  %.not45 = icmp eq i32 %57, 1
  br i1 %.not45, label %.thread69, label %58

58:                                               ; preds = %56
  call void @slurm_perror(ptr noundef nonnull @.str.167) #18
  br label %.thread69

.thread69:                                        ; preds = %switch.early.test, %switch.early.test, %45, %43, %54, %58, %56, %51, %38, %40, %33, %6, %8
  call void @llvm.lifetime.end.p0(i64 8, ptr nonnull %3) #18
  ret void
}